target datalayout = "e-m:e-p270:32:32-p271:32:32-p272:64:64-i64:64-i128:128-f80:128-n8:16:32:64-S128"
target triple = "x86_64-pc-linux-gnu"

%union.pthread_mutex_t = type { %struct.__pthread_mutex_s }
%struct.__pthread_mutex_s = type { i32, i32, i32, i32, i32, i16, i16, %struct.__pthread_internal_list }
%struct.__pthread_internal_list = type { ptr, ptr }
%struct.___itt_global = type { [8 x i8], i64, i64, i64, i64, i64, i64, %union.pthread_mutex_t, ptr, ptr, ptr, ptr, ptr, ptr, ptr, ptr, i32, ptr, i32, ptr, ptr }
%struct.___itt_id = type { i64, i64, i64 }

@__itt_metadata_str_add_ptr__3_0 = hidden global ptr @__itt_metadata_str_add_init_3_0, align 8
@__itt_init_ittlib_ptr = internal global ptr @__itt_init_ittlib, align 8

; Function Attrs: nounwind uwtable
define internal void @__itt_metadata_str_add_init_3_0(ptr noundef %0, ptr noundef byval(%struct.___itt_id) align 8 %1, ptr noundef %2, ptr noundef %3, i64 noundef %4) #0 {
  %6 = alloca ptr, align 8
  %7 = alloca ptr, align 8
  %8 = alloca ptr, align 8
  %9 = alloca i64, align 8
  store ptr %0, ptr %6, align 8, !tbaa !27
  store ptr %2, ptr %7, align 8, !tbaa !28
  store ptr %3, ptr %8, align 8, !tbaa !22
  store i64 %4, ptr %9, align 8, !tbaa !25
  %10 = load volatile i64, ptr getelementptr inbounds nuw (%struct.___itt_global, ptr @__itt__ittapi_global, i32 0, i32 4), align 8, !tbaa !3
  %11 = icmp ne i64 %10, 0
  br i1 %11, label %18, label %12

12:                                               ; preds = %5
  %13 = load ptr, ptr getelementptr inbounds nuw (%struct.___itt_global, ptr @__itt__ittapi_global, i32 0, i32 13), align 8, !tbaa !20
  %14 = icmp eq ptr %13, null
  br i1 %14, label %15, label %18

15:                                               ; preds = %12
  %16 = load ptr, ptr @__itt_init_ittlib_ptr, align 8, !tbaa !21
  %17 = call i32 %16(ptr noundef null, i32 noundef -1)
  br label %18

18:                                               ; preds = %15, %12, %5
  %19 = load ptr, ptr @__itt_metadata_str_add_ptr__3_0, align 8, !tbaa !21
  %20 = icmp ne ptr %19, null
  br i1 %20, label %21, label %30

21:                                               ; preds = %18
  %22 = load ptr, ptr @__itt_metadata_str_add_ptr__3_0, align 8, !tbaa !21
  %23 = icmp ne ptr %22, @__itt_metadata_str_add_init_3_0
  br i1 %23, label %24, label %30

24:                                               ; preds = %21
  %25 = load ptr, ptr @__itt_metadata_str_add_ptr__3_0, align 8, !tbaa !21
  %26 = load ptr, ptr %6, align 8, !tbaa !27
  %27 = load ptr, ptr %7, align 8, !tbaa !28
  %28 = load ptr, ptr %8, align 8, !tbaa !22
  %29 = load i64, ptr %9, align 8, !tbaa !25
  call void %25(ptr noundef %26, ptr noundef byval(%struct.___itt_id) align 8 %1, ptr noundef %27, ptr noundef %28, i64 noundef %29)
  br label %31

30:                                               ; preds = %21, %18
  br label %31

31:                                               ; preds = %30, %24
  ret void
}